target datalayout = "e-m:e-p270:32:32-p271:32:32-p272:64:64-i64:64-i128:128-f80:128-n8:16:32:64-S128"
target triple = "x86_64-pc-linux-gnu"

%struct.Color = type { i8, i8, i8, i8 }
%struct.Vector2 = type { float, float }

; Function Attrs: nounwind uwtable
define void @DrawSplineSegmentLinear(<2 x float> %0, <2 x float> %1, float noundef %2, i32 %3) #0 {
  %5 = alloca %struct.Vector2, align 4
  %6 = alloca %struct.Vector2, align 4
  %7 = alloca %struct.Color, align 1
  %8 = alloca float, align 4
  %9 = alloca %struct.Vector2, align 4
  %10 = alloca float, align 4
  %11 = alloca float, align 4
  %12 = alloca %struct.Vector2, align 4
  %13 = alloca [4 x %struct.Vector2], align 16
  store <2 x float> %0, ptr %5, align 4
  store <2 x float> %1, ptr %6, align 4
  store i32 %3, ptr %7, align 1
  store float %2, ptr %8, align 4
  call void @llvm.lifetime.start.p0(i64 8, ptr %9) #8
  %14 = getelementptr inbounds nuw %struct.Vector2, ptr %9, i32 0, i32 0
  %15 = getelementptr inbounds nuw %struct.Vector2, ptr %6, i32 0, i32 0
  %16 = load float, ptr %15, align 4
  %17 = getelementptr inbounds nuw %struct.Vector2, ptr %5, i32 0, i32 0
  %18 = load float, ptr %17, align 4
  %19 = fsub float %16, %18
  store float %19, ptr %14, align 4
  %20 = getelementptr inbounds nuw %struct.Vector2, ptr %9, i32 0, i32 1
  %21 = getelementptr inbounds nuw %struct.Vector2, ptr %6, i32 0, i32 1
  %22 = load float, ptr %21, align 4
  %23 = getelementptr inbounds nuw %struct.Vector2, ptr %5, i32 0, i32 1
  %24 = load float, ptr %23, align 4
  %25 = fsub float %22, %24
  store float %25, ptr %20, align 4
  call void @llvm.lifetime.start.p0(i64 4, ptr %10) #8
  %26 = getelementptr inbounds nuw %struct.Vector2, ptr %9, i32 0, i32 0
  %27 = load float, ptr %26, align 4
  %28 = getelementptr inbounds nuw %struct.Vector2, ptr %9, i32 0, i32 0
  %29 = load float, ptr %28, align 4
  %30 = getelementptr inbounds nuw %struct.Vector2, ptr %9, i32 0, i32 1
  %31 = load float, ptr %30, align 4
  %32 = getelementptr inbounds nuw %struct.Vector2, ptr %9, i32 0, i32 1
  %33 = load float, ptr %32, align 4
  %34 = fmul float %31, %33
  %35 = call float @llvm.fmuladd.f32(float %27, float %29, float %34)
  %36 = call float @sqrtf(float noundef %35) #8
  store float %36, ptr %10, align 4
  %37 = load float, ptr %10, align 4
  %38 = fcmp ogt float %37, 0.000000e+00
  br i1 %38, label %39, label %111

39:                                               ; preds = %4
  %40 = load float, ptr %8, align 4
  %41 = fcmp ogt float %40, 0.000000e+00
  br i1 %41, label %42, label %111

42:                                               ; preds = %39
  call void @llvm.lifetime.start.p0(i64 4, ptr %11) #8
  %43 = load float, ptr %8, align 4
  %44 = load float, ptr %10, align 4
  %45 = fmul float 2.000000e+00, %44
  %46 = fdiv float %43, %45
  store float %46, ptr %11, align 4
  call void @llvm.lifetime.start.p0(i64 8, ptr %12) #8
  %47 = getelementptr inbounds nuw %struct.Vector2, ptr %12, i32 0, i32 0
  %48 = load float, ptr %11, align 4
  %49 = fneg float %48
  %50 = getelementptr inbounds nuw %struct.Vector2, ptr %9, i32 0, i32 1
  %51 = load float, ptr %50, align 4
  %52 = fmul float %49, %51
  store float %52, ptr %47, align 4
  %53 = getelementptr inbounds nuw %struct.Vector2, ptr %12, i32 0, i32 1
  %54 = load float, ptr %11, align 4
  %55 = getelementptr inbounds nuw %struct.Vector2, ptr %9, i32 0, i32 0
  %56 = load float, ptr %55, align 4
  %57 = fmul float %54, %56
  store float %57, ptr %53, align 4
  call void @llvm.lifetime.start.p0(i64 32, ptr %13) #8
  %58 = getelementptr inbounds nuw %struct.Vector2, ptr %13, i32 0, i32 0
  %59 = getelementptr inbounds nuw %struct.Vector2, ptr %5, i32 0, i32 0
  %60 = load float, ptr %59, align 4
  %61 = getelementptr inbounds nuw %struct.Vector2, ptr %12, i32 0, i32 0
  %62 = load float, ptr %61, align 4
  %63 = fsub float %60, %62
  store float %63, ptr %58, align 8
  %64 = getelementptr inbounds nuw %struct.Vector2, ptr %13, i32 0, i32 1
  %65 = getelementptr inbounds nuw %struct.Vector2, ptr %5, i32 0, i32 1
  %66 = load float, ptr %65, align 4
  %67 = getelementptr inbounds nuw %struct.Vector2, ptr %12, i32 0, i32 1
  %68 = load float, ptr %67, align 4
  %69 = fsub float %66, %68
  store float %69, ptr %64, align 4
  %70 = getelementptr inbounds %struct.Vector2, ptr %13, i64 1
  %71 = getelementptr inbounds nuw %struct.Vector2, ptr %70, i32 0, i32 0
  %72 = getelementptr inbounds nuw %struct.Vector2, ptr %5, i32 0, i32 0
  %73 = load float, ptr %72, align 4
  %74 = getelementptr inbounds nuw %struct.Vector2, ptr %12, i32 0, i32 0
  %75 = load float, ptr %74, align 4
  %76 = fadd float %73, %75
  store float %76, ptr %71, align 8
  %77 = getelementptr inbounds nuw %struct.Vector2, ptr %70, i32 0, i32 1
  %78 = getelementptr inbounds nuw %struct.Vector2, ptr %5, i32 0, i32 1
  %79 = load float, ptr %78, align 4
  %80 = getelementptr inbounds nuw %struct.Vector2, ptr %12, i32 0, i32 1
  %81 = load float, ptr %80, align 4
  %82 = fadd float %79, %81
  store float %82, ptr %77, align 4
  %83 = getelementptr inbounds %struct.Vector2, ptr %13, i64 2
  %84 = getelementptr inbounds nuw %struct.Vector2, ptr %83, i32 0, i32 0
  %85 = getelementptr inbounds nuw %struct.Vector2, ptr %6, i32 0, i32 0
  %86 = load float, ptr %85, align 4
  %87 = getelementptr inbounds nuw %struct.Vector2, ptr %12, i32 0, i32 0
  %88 = load float, ptr %87, align 4
  %89 = fsub float %86, %88
  store float %89, ptr %84, align 8
  %90 = getelementptr inbounds nuw %struct.Vector2, ptr %83, i32 0, i32 1
  %91 = getelementptr inbounds nuw %struct.Vector2, ptr %6, i32 0, i32 1
  %92 = load float, ptr %91, align 4
  %93 = getelementptr inbounds nuw %struct.Vector2, ptr %12, i32 0, i32 1
  %94 = load float, ptr %93, align 4
  %95 = fsub float %92, %94
  store float %95, ptr %90, align 4
  %96 = getelementptr inbounds %struct.Vector2, ptr %13, i64 3
  %97 = getelementptr inbounds nuw %struct.Vector2, ptr %96, i32 0, i32 0
  %98 = getelementptr inbounds nuw %struct.Vector2, ptr %6, i32 0, i32 0
  %99 = load float, ptr %98, align 4
  %100 = getelementptr inbounds nuw %struct.Vector2, ptr %12, i32 0, i32 0
  %101 = load float, ptr %100, align 4
  %102 = fadd float %99, %101
  store float %102, ptr %97, align 8
  %103 = getelementptr inbounds nuw %struct.Vector2, ptr %96, i32 0, i32 1
  %104 = getelementptr inbounds nuw %struct.Vector2, ptr %6, i32 0, i32 1
  %105 = load float, ptr %104, align 4
  %106 = getelementptr inbounds nuw %struct.Vector2, ptr %12, i32 0, i32 1
  %107 = load float, ptr %106, align 4
  %108 = fadd float %105, %107
  store float %108, ptr %103, align 4
  %109 = getelementptr inbounds [4 x %struct.Vector2], ptr %13, i64 0, i64 0
  %110 = load i32, ptr %7, align 1
  call void @DrawTriangleStrip(ptr noundef %109, i32 noundef 4, i32 %110)
  call void @llvm.lifetime.end.p0(i64 32, ptr %13) #8
  call void @llvm.lifetime.end.p0(i64 8, ptr %12) #8
  call void @llvm.lifetime.end.p0(i64 4, ptr %11) #8
  br label %111

111:                                              ; preds = %42, %39, %4
  call void @llvm.lifetime.end.p0(i64 4, ptr %10) #8
  call void @llvm.lifetime.end.p0(i64 8, ptr %9) #8
  ret void
}